target datalayout = "e-m:e-p270:32:32-p271:32:32-p272:64:64-i64:64-i128:128-f80:128-n8:16:32:64-S128"
target triple = "x86_64-pc-linux-gnu"

%"class.absl::synchronization_internal::GraphCycles" = type { ptr }
%"struct.absl::synchronization_internal::GraphCycles::Rep" = type { %"class.absl::synchronization_internal::(anonymous namespace)::Vec", %"class.absl::synchronization_internal::(anonymous namespace)::Vec.0", %"class.absl::synchronization_internal::(anonymous namespace)::PointerMap", %"class.absl::synchronization_internal::(anonymous namespace)::Vec.0", %"class.absl::synchronization_internal::(anonymous namespace)::Vec.0", %"class.absl::synchronization_internal::(anonymous namespace)::Vec.0", %"class.absl::synchronization_internal::(anonymous namespace)::Vec.0", %"class.absl::synchronization_internal::(anonymous namespace)::Vec.0" }
%"class.absl::synchronization_internal::(anonymous namespace)::Vec" = type { ptr, [8 x ptr], i32, i32 }
%"class.absl::synchronization_internal::(anonymous namespace)::PointerMap" = type <{ ptr, %"struct.std::array", [4 x i8] }>
%"struct.std::array" = type { [262139 x i32] }
%"class.absl::synchronization_internal::(anonymous namespace)::Vec.0" = type { ptr, [8 x i32], i32, i32 }
%"struct.absl::synchronization_internal::(anonymous namespace)::Node" = type { i32, i32, i32, i8, i64, %"class.absl::synchronization_internal::(anonymous namespace)::NodeSet", %"class.absl::synchronization_internal::(anonymous namespace)::NodeSet", i32, i32, [40 x ptr] }
%"class.absl::synchronization_internal::(anonymous namespace)::NodeSet" = type <{ %"class.absl::synchronization_internal::(anonymous namespace)::Vec.0", i32, [4 x i8] }>
%"struct.absl::synchronization_internal::GraphId" = type { i64 }

; Function Attrs: inlinehint mustprogress nounwind uwtable
define internal noundef i32 @_ZN4absl24synchronization_internal12_GLOBAL__N_111NodeVersionENS0_7GraphIdE(i64 %0) #5 {
  %2 = alloca %"struct.absl::synchronization_internal::GraphId", align 8
  %3 = getelementptr inbounds nuw %"struct.absl::synchronization_internal::GraphId", ptr %2, i32 0, i32 0
  store i64 %0, ptr %3, align 8
  %4 = getelementptr inbounds nuw %"struct.absl::synchronization_internal::GraphId", ptr %2, i32 0, i32 0
  %5 = load i64, ptr %4, align 8, !tbaa !61
  %6 = lshr i64 %5, 32
  %7 = trunc i64 %6 to i32
  ret i32 %7
}

; Function Attrs: mustprogress nounwind uwtable
define internal noundef nonnull align 8 dereferenceable(8) ptr @_ZN4absl24synchronization_internal12_GLOBAL__N_13VecIPNS1_4NodeEEixEj(ptr noundef nonnull align 8 dereferenceable(80) %0, i32 noundef %1) #2 align 2 {
  %3 = alloca ptr, align 8
  %4 = alloca i32, align 4
  store ptr %0, ptr %3, align 8, !tbaa !18
  store i32 %1, ptr %4, align 4, !tbaa !9
  %5 = load ptr, ptr %3, align 8
  %6 = getelementptr inbounds nuw %"class.absl::synchronization_internal::(anonymous namespace)::Vec", ptr %5, i32 0, i32 0
  %7 = load ptr, ptr %6, align 8, !tbaa !24
  %8 = load i32, ptr %4, align 4, !tbaa !9
  %9 = zext i32 %8 to i64
  %10 = getelementptr inbounds nuw ptr, ptr %7, i64 %9
  ret ptr %10
}

; Function Attrs: inlinehint mustprogress nounwind uwtable
define internal noundef i32 @_ZN4absl24synchronization_internal12_GLOBAL__N_19NodeIndexENS0_7GraphIdE(i64 %0) #5 {
  %2 = alloca %"struct.absl::synchronization_internal::GraphId", align 8
  %3 = getelementptr inbounds nuw %"struct.absl::synchronization_internal::GraphId", ptr %2, i32 0, i32 0
  store i64 %0, ptr %3, align 8
  %4 = getelementptr inbounds nuw %"struct.absl::synchronization_internal::GraphId", ptr %2, i32 0, i32 0
  %5 = load i64, ptr %4, align 8, !tbaa !61
  %6 = trunc i64 %5 to i32
  ret i32 %6
}

; Function Attrs: mustprogress uwtable
define internal noundef ptr @_ZN4absl24synchronization_internalL8FindNodeEPNS0_11GraphCycles3RepENS0_7GraphIdE(ptr noundef %0, i64 %1) #0 {
  %3 = alloca %"struct.absl::synchronization_internal::GraphId", align 8
  %4 = alloca ptr, align 8
  %5 = alloca ptr, align 8
  %6 = alloca %"struct.absl::synchronization_internal::GraphId", align 8
  %7 = alloca %"struct.absl::synchronization_internal::GraphId", align 8
  %8 = getelementptr inbounds nuw %"struct.absl::synchronization_internal::GraphId", ptr %3, i32 0, i32 0
  store i64 %1, ptr %8, align 8
  store ptr %0, ptr %4, align 8, !tbaa !27
  call void @llvm.lifetime.start.p0(i64 8, ptr %5) #12
  %9 = load ptr, ptr %4, align 8, !tbaa !27
  %10 = getelementptr inbounds nuw %"struct.absl::synchronization_internal::GraphCycles::Rep", ptr %9, i32 0, i32 0
  call void @llvm.memcpy.p0.p0.i64(ptr align 8 %6, ptr align 8 %3, i64 8, i1 false), !tbaa.struct !71
  %11 = getelementptr inbounds nuw %"struct.absl::synchronization_internal::GraphId", ptr %6, i32 0, i32 0
  %12 = load i64, ptr %11, align 8
  %13 = call noundef i32 @_ZN4absl24synchronization_internal12_GLOBAL__N_19NodeIndexENS0_7GraphIdE(i64 %12)
  %14 = call noundef nonnull align 8 dereferenceable(8) ptr @_ZN4absl24synchronization_internal12_GLOBAL__N_13VecIPNS1_4NodeEEixEj(ptr noundef nonnull align 8 dereferenceable(80) %10, i32 noundef %13)
  %15 = load ptr, ptr %14, align 8, !tbaa !14
  store ptr %15, ptr %5, align 8, !tbaa !14
  %16 = load ptr, ptr %5, align 8, !tbaa !14
  %17 = getelementptr inbounds nuw %"struct.absl::synchronization_internal::(anonymous namespace)::Node", ptr %16, i32 0, i32 1
  %18 = load i32, ptr %17, align 4, !tbaa !58
  call void @llvm.memcpy.p0.p0.i64(ptr align 8 %7, ptr align 8 %3, i64 8, i1 false), !tbaa.struct !71
  %19 = getelementptr inbounds nuw %"struct.absl::synchronization_internal::GraphId", ptr %7, i32 0, i32 0
  %20 = load i64, ptr %19, align 8
  %21 = call noundef i32 @_ZN4absl24synchronization_internal12_GLOBAL__N_111NodeVersionENS0_7GraphIdE(i64 %20)
  %22 = icmp eq i32 %18, %21
  br i1 %22, label %23, label %25

23:                                               ; preds = %2
  %24 = load ptr, ptr %5, align 8, !tbaa !14
  br label %26

25:                                               ; preds = %2
  br label %26

26:                                               ; preds = %25, %23
  %27 = phi ptr [ %24, %23 ], [ null, %25 ]
  call void @llvm.lifetime.end.p0(i64 8, ptr %5) #12
  ret ptr %27
}

; Function Attrs: mustprogress uwtable
define dso_local noundef i32 @_ZN4absl24synchronization_internal11GraphCycles13GetStackTraceENS0_7GraphIdEPPPv(ptr noundef nonnull align 8 dereferenceable(8) %0, i64 %1, ptr noundef %2) #0 align 2 {
  %4 = alloca i32, align 4
  %5 = alloca %"struct.absl::synchronization_internal::GraphId", align 8
  %6 = alloca ptr, align 8
  %7 = alloca ptr, align 8
  %8 = alloca ptr, align 8
  %9 = alloca %"struct.absl::synchronization_internal::GraphId", align 8
  %10 = alloca i32, align 4
  %11 = getelementptr inbounds nuw %"struct.absl::synchronization_internal::GraphId", ptr %5, i32 0, i32 0
  store i64 %1, ptr %11, align 8
  store ptr %0, ptr %6, align 8, !tbaa !4
  store ptr %2, ptr %7, align 8, !tbaa !36
  %12 = load ptr, ptr %6, align 8
  call void @llvm.lifetime.start.p0(i64 8, ptr %8) #12
  %13 = getelementptr inbounds nuw %"class.absl::synchronization_internal::GraphCycles", ptr %12, i32 0, i32 0
  %14 = load ptr, ptr %13, align 8, !tbaa !11
  call void @llvm.memcpy.p0.p0.i64(ptr align 8 %9, ptr align 8 %5, i64 8, i1 false), !tbaa.struct !71
  %15 = getelementptr inbounds nuw %"struct.absl::synchronization_internal::GraphId", ptr %9, i32 0, i32 0
  %16 = load i64, ptr %15, align 8
  %17 = call noundef ptr @_ZN4absl24synchronization_internalL8FindNodeEPNS0_11GraphCycles3RepENS0_7GraphIdE(ptr noundef %14, i64 %16)
  store ptr %17, ptr %8, align 8, !tbaa !14
  %18 = load ptr, ptr %8, align 8, !tbaa !14
  %19 = icmp eq ptr %18, null
  br i1 %19, label %20, label %22

20:                                               ; preds = %3
  %21 = load ptr, ptr %7, align 8, !tbaa !36
  store ptr null, ptr %21, align 8, !tbaa !36
  store i32 0, ptr %4, align 4
  store i32 1, ptr %10, align 4
  br label %30

22:                                               ; preds = %3
  %23 = load ptr, ptr %8, align 8, !tbaa !14
  %24 = getelementptr inbounds nuw %"struct.absl::synchronization_internal::(anonymous namespace)::Node", ptr %23, i32 0, i32 9
  %25 = getelementptr inbounds [40 x ptr], ptr %24, i64 0, i64 0
  %26 = load ptr, ptr %7, align 8, !tbaa !36
  store ptr %25, ptr %26, align 8, !tbaa !36
  %27 = load ptr, ptr %8, align 8, !tbaa !14
  %28 = getelementptr inbounds nuw %"struct.absl::synchronization_internal::(anonymous namespace)::Node", ptr %27, i32 0, i32 8
  %29 = load i32, ptr %28, align 4, !tbaa !59
  store i32 %29, ptr %4, align 4
  store i32 1, ptr %10, align 4
  br label %30

30:                                               ; preds = %22, %20
  call void @llvm.lifetime.end.p0(i64 8, ptr %8) #12
  %31 = load i32, ptr %4, align 4
  ret i32 %31
}