; Function Attrs: mustprogress nofree norecurse nosync nounwind willreturn memory(read, argmem: readwrite, inaccessiblemem: none) uwtable
define dso_local noundef i32 @_ZN4absl24synchronization_internal11GraphCycles13GetStackTraceENS0_7GraphIdEPPPv(ptr noundef nonnull readonly align 8 captures(none) dereferenceable(8) %0, i64 %1, ptr noundef writeonly captures(none) initializes((0, 8)) %2) local_unnamed_addr #9 align 2 {
  %4 = load ptr, ptr %0, align 8, !tbaa !4
  %.val = load ptr, ptr %4, align 8, !tbaa !19
  %5 = and i64 %1, 4294967295
  %6 = getelementptr inbounds nuw ptr, ptr %.val, i64 %5
  %7 = load ptr, ptr %6, align 8, !tbaa !20
  %8 = getelementptr inbounds nuw i8, ptr %7, i64 4
  %9 = load i32, ptr %8, align 4, !tbaa !47
  %10 = lshr i64 %1, 32
  %11 = trunc nuw i64 %10 to i32
  %12 = icmp ne i32 %9, %11
  %13 = icmp eq ptr %7, null
  %14 = or i1 %13, %12
  br i1 %14, label %19, label %15

15:                                               ; preds = %3
  %16 = getelementptr inbounds nuw i8, ptr %7, i64 144
  %17 = getelementptr inbounds nuw i8, ptr %7, i64 140
  %18 = load i32, ptr %17, align 4, !tbaa !48
  br label %19

19:                                               ; preds = %3, %15
  %.sink = phi ptr [ %16, %15 ], [ null, %3 ]
  %.0 = phi i32 [ %18, %15 ], [ 0, %3 ]
  store ptr %.sink, ptr %2, align 8, !tbaa !62
  ret i32 %.0
}